target datalayout = "e-m:e-p270:32:32-p271:32:32-p272:64:64-i64:64-i128:128-f80:128-n8:16:32:64-S128"
target triple = "x86_64-pc-linux-gnu"

%struct._diam_sub_dis_t = type { i32, i32, i32, i8, i32, ptr, ptr, i32, i32, i8 }

; Function Attrs: null_pointer_is_valid sspstrong uwtable
define internal i32 @dissect_diameter_subscription_id_data(ptr noundef %0, ptr noundef %1, ptr noundef %2, ptr noundef %3) #0 {
  %5 = alloca i32, align 4
  %6 = alloca ptr, align 8
  %7 = alloca ptr, align 8
  %8 = alloca ptr, align 8
  %9 = alloca ptr, align 8
  %10 = alloca i32, align 4
  %11 = alloca ptr, align 8
  %12 = alloca i32, align 4
  %13 = alloca i32, align 4
  store ptr %0, ptr %6, align 8
  store ptr %1, ptr %7, align 8
  store ptr %2, ptr %8, align 8
  store ptr %3, ptr %9, align 8
  call void @llvm.lifetime.start.p0(i64 4, ptr %10) #14
  call void @llvm.lifetime.start.p0(i64 8, ptr %11) #14
  %14 = load ptr, ptr %9, align 8
  store ptr %14, ptr %11, align 8
  call void @llvm.lifetime.start.p0(i64 4, ptr %12) #14
  %15 = load ptr, ptr %11, align 8
  %16 = getelementptr inbounds nuw %struct._diam_sub_dis_t, ptr %15, i32 0, i32 7
  %17 = load i32, ptr %16, align 8
  store i32 %17, ptr %12, align 4
  %18 = load i32, ptr %12, align 4
  switch i32 %18, label %36 [
    i32 1, label %19
    i32 0, label %28
  ]

19:                                               ; preds = %4
  %20 = load ptr, ptr %6, align 8
  %21 = call i32 @tvb_reported_length(ptr noundef %20)
  store i32 %21, ptr %10, align 4
  %22 = load ptr, ptr %6, align 8
  %23 = load ptr, ptr %7, align 8
  %24 = load ptr, ptr %8, align 8
  %25 = load i32, ptr %10, align 4
  %26 = call ptr @dissect_e212_utf8_imsi(ptr noundef %22, ptr noundef %23, ptr noundef %24, i32 noundef 0, i32 noundef %25)
  %27 = load i32, ptr %10, align 4
  store i32 %27, ptr %5, align 4
  store i32 1, ptr %13, align 4
  br label %37

28:                                               ; preds = %4
  %29 = load ptr, ptr %6, align 8
  %30 = call i32 @tvb_reported_length(ptr noundef %29)
  store i32 %30, ptr %10, align 4
  %31 = load ptr, ptr %6, align 8
  %32 = load ptr, ptr %8, align 8
  %33 = load i32, ptr %10, align 4
  %34 = call ptr @dissect_e164_msisdn(ptr noundef %31, ptr noundef %32, i32 noundef 0, i32 noundef %33, i32 noundef 2)
  %35 = load i32, ptr %10, align 4
  store i32 %35, ptr %5, align 4
  store i32 1, ptr %13, align 4
  br label %37

36:                                               ; preds = %4
  store i32 0, ptr %5, align 4
  store i32 1, ptr %13, align 4
  br label %37

37:                                               ; preds = %36, %28, %19
  call void @llvm.lifetime.end.p0(i64 4, ptr %12) #14
  call void @llvm.lifetime.end.p0(i64 8, ptr %11) #14
  call void @llvm.lifetime.end.p0(i64 4, ptr %10) #14
  %38 = load i32, ptr %5, align 4
  ret i32 %38
}