; Function Attrs: null_pointer_is_valid sspstrong uwtable
define internal noundef i32 @dissect_diameter_subscription_id_data(ptr noundef %0, ptr noundef %1, ptr noundef %2, ptr noundef readonly captures(none) %3) #0 {
  %5 = getelementptr inbounds nuw i8, ptr %3, i64 40
  %6 = load i32, ptr %5, align 8
  switch i32 %6, label %13 [
    i32 1, label %7
    i32 0, label %10
  ]

7:                                                ; preds = %4
  %8 = tail call i32 @tvb_reported_length(ptr noundef %0)
  %9 = tail call ptr @dissect_e212_utf8_imsi(ptr noundef %0, ptr noundef %1, ptr noundef %2, i32 noundef 0, i32 noundef %8)
  br label %13

10:                                               ; preds = %4
  %11 = tail call i32 @tvb_reported_length(ptr noundef %0)
  %12 = tail call ptr @dissect_e164_msisdn(ptr noundef %0, ptr noundef %2, i32 noundef 0, i32 noundef %11, i32 noundef 2)
  br label %13

13:                                               ; preds = %4, %10, %7
  %.0 = phi i32 [ %11, %10 ], [ %8, %7 ], [ 0, %4 ]
  ret i32 %.0
}